(ios
_Environ
p0
(dp1
S'data'
p2
(dp3
S'CRAY_MPICH_BASEDIR'
p4
S'/opt/cray/pe/mpt/7.7.0/gni'
p5
sS'CRAY_LIBSCI_BASE_DIR'
p6
S'/opt/cray/pe/libsci/18.03.1'
p7
sS'CPU'
p8
S'x86_64'
p9
sS'PE_PETSC_DEFAULT_VOLATILE_PKGCONFIG_PATH'
p10
S'/opt/cray/pe/petsc/3.7.6.2/complex/@PRGENV@/@PE_PETSC_DEFAULT_GENCOMPS@/@PE_PETSC_DEFAULT_TARGET@/lib/pkgconfig'
p11
sS'INFOPATH'
p12
S'/opt/gcc/7.3.0/snos/share/info'
p13
sS'ALTD_ON'
p14
S'1'
p15
sS'PE_LIBSCI_GENCOMPILERS_CRAY_x86_64'
p16
S'8.6'
p17
sS'PE_FFTW_DEFAULT_TARGET_share'
p18
S'share'
p19
sS'HISTSIZE'
p20
S'1000'
p21
sS'PE_TPSL_64_DEFAULT_GENCOMPS_INTEL_x86_64'
p22
S'160'
p23
sS'CRAY_LIBSCI_VERSION'
p24
S'18.03.1'
p25
sS'JAVA_HOME'
p26
S'/usr/lib64/jvm/java'
p27
sS'craype_already_loaded'
p28
S'0'
p29
sS'PE_LIBSCI_VOLATILE_PKGCONFIG_PATH'
p30
S'/opt/cray/pe/libsci/18.03.1/@PRGENV@/@PE_LIBSCI_GENCOMPS@/@PE_LIBSCI_TARGET@/lib/pkgconfig'
p31
sS'FPATH'
p32
S':/opt/cray/pe/modules/3.2.10.6/init/sh_funcs/no_redirect:/opt/cray/pe/modules/3.2.10.6/init/sh_funcs/no_redirect'
p33
sS'PE_NETCDF_HDF5PARALLEL_DEFAULT_VOLATILE_PKGCONFIG_PATH'
p34
S'/opt/cray/pe/netcdf-hdf5parallel/4.4.1.1.6/@PRGENV@/@PE_NETCDF_HDF5PARALLEL_DEFAULT_GENCOMPS@/lib/pkgconfig'
p35
sS'GSL_INC'
p36
S'/usr/common/software/gsl/2.1/gnu/include'
p37
sS'PE_HDF5_DEFAULT_VOLATILE_PKGCONFIG_PATH'
p38
S'/opt/cray/pe/hdf5/1.10.1.1/@PRGENV@/@PE_HDF5_DEFAULT_GENCOMPS@/lib/pkgconfig'
p39
sS'PE_FFTW_PKGCONFIG_LIBS'
p40
S'fftw3f_mpi:libfftw3f_threads:fftw3f:fftw3_mpi:libfftw3_threads:fftw3'
p41
sS'XDG_SESSION_ID'
p42
S'49701'
p43
sS'PE_TRILINOS_DEFAULT_VOLATILE_PKGCONFIG_PATH'
p44
S'/opt/cray/pe/trilinos/12.10.1.2/@PRGENV@/@PE_TRILINOS_DEFAULT_GENCOMPS@/@PE_TRILINOS_DEFAULT_TARGET@/lib/pkgconfig'
p45
sS'PE_FFTW_DEFAULT_TARGET_x86_skylake'
p46
S'x86_skylake'
p47
sS'PE_SMA_DEFAULT_DIR_PGI_DEFAULT64'
p48
S'64'
p49
sS'CSCRATCH'
p50
S'/global/cscratch1/sd/seccolf'
p51
sS'KSH_AUTOLOAD'
p52
g15
sS'CONDA_PYTHON_EXE'
p53
S'/usr/common/software/python/2.7-anaconda-4.4/bin/python'
p54
sS'PE_TPSL_DEFAULT_GENCOMPS_CRAY_interlagos'
p55
S'86'
p56
sS'PE_PETSC_DEFAULT_GENCOMPILERS_GNU_haswell'
p57
S'5.3 4.9'
p58
sS'CSHEDIT'
p59
S'emacs'
p60
sS'PE_TRILINOS_DEFAULT_GENCOMPILERS_INTEL_x86_64'
p61
S'16.0'
p62
sS'PE_FFTW_PKGCONFIG_VARIABLES'
p63
S'PE_FFTW_OMP_REQUIRES_@openmp@'
p64
sS'CRAY_UDREG_INCLUDE_OPTS'
p65
S'-I/opt/cray/udreg/2.3.2-6.0.5.0_13.12__ga14955a.ari/include'
p66
sS'USER'
p67
S'seccolf'
p68
sS'PE_FFTW_TARGET_x86_64'
p69
S'x86_64'
p70
sS'PE_LIBSCI_DEFAULT_GENCOMPS_INTEL_x86_64'
p71
S'160'
p72
sS'PE_TPSL_64_DEFAULT_GENCOMPILERS_GNU_x86_64'
p73
S'5.1 4.9'
p74
sS'JDK_HOME'
p75
S'/usr/lib64/jvm/java'
p76
sS'PE_HDF5_DEFAULT_GENCOMPS_GNU'
p77
S'51 49'
p78
sS'PE_TPSL_DEFAULT_GENCOMPILERS_INTEL_x86_64'
p79
S'16.0'
p80
sS'CRAY_LIBSCI_DIR'
p81
S'/opt/cray/pe/libsci/18.03.1'
p82
sS'PE_TPSL_64_DEFAULT_GENCOMPILERS_INTEL_x86_64'
p83
S'16.0'
p84
sS'PE_HDF5_PARALLEL_DEFAULT_GENCOMPILERS_GNU'
p85
S'5.1 4.9'
p86
sS'CRAY_FFTW_VERSION'
p87
S'3.3.6.2'
p88
sS'JAVA_BINDIR'
p89
S'/usr/lib64/jvm/java/bin'
p90
sS'PE_TPSL_DEFAULT_GENCOMPS_INTEL_x86_skylake'
p91
S'160'
p92
sS'PE_LIBSCI_DEFAULT_OMP_REQUIRES'
p93
S''
p94
sS'PE_NETCDF_DEFAULT_VOLATILE_PKGCONFIG_PATH'
p95
S'/opt/cray/pe/netcdf/4.4.1.1.6/@PRGENV@/@PE_NETCDF_DEFAULT_GENCOMPS@/lib/pkgconfig'
p96
sS'PE_PETSC_DEFAULT_GENCOMPILERS_GNU_mic_knl'
p97
S'5.3'
p98
sS'PE_PETSC_DEFAULT_GENCOMPS_GNU_skylake'
p99
S'61'
p100
sS'PE_TPSL_DEFAULT_GENCOMPS_CRAY_x86_64'
p101
S'86'
p102
sS'PE_MPICH_DEFAULT_FIXED_PRGENV'
p103
S'INTEL'
p104
sS'PE_HDF5_PARALLEL_DEFAULT_FIXED_PRGENV'
p105
S'CRAY INTEL'
p106
sS'PE_TPSL_64_DEFAULT_GENCOMPS_CRAY_sandybridge'
p107
S'86'
p108
sS'TMPDIR'
p109
S'/tmp'
p110
sS'PE_PKGCONFIG_PRODUCTS_DEFAULT'
p111
S'PE_PAPI'
p112
sS'PE_LIBSCI_DEFAULT_OMP_REQUIRES_openmp'
p113
S'_mp'
p114
sS'PE_HDF5_PARALLEL_DEFAULT_GENCOMPS_GNU'
p115
S'51 49'
p116
sS'_LMFILES_'
p117
S'/opt/cray/pe/modulefiles/modules/3.2.10.6:/usr/syscom/nsg/modulefiles/nsg/1.2.0:/opt/modulefiles/gcc/7.3.0:/opt/cray/pe/craype/2.5.14/modulefiles/craype-haswell:/opt/cray/pe/craype/2.5.14/modulefiles/craype-network-aries:/opt/cray/pe/modulefiles/craype/2.5.14:/opt/cray/pe/modulefiles/cray-mpich/7.7.0:/usr/common/software/modulefiles/altd/2.0:/usr/common/software/modulefiles/darshan/3.1.4:/opt/cray/pe/modulefiles/cray-libsci/18.03.1:/opt/cray/ari/modulefiles/udreg/2.3.2-6.0.5.0_13.12__ga14955a.ari:/opt/cray/ari/modulefiles/ugni/6.0.14-6.0.5.0_16.9__g19583bb.ari:/opt/cray/pe/modulefiles/pmi/5.0.13:/opt/cray/ari/modulefiles/dmapp/7.1.1-6.0.5.0_49.8__g1125556.ari:/opt/cray/ari/modulefiles/gni-headers/5.0.12-6.0.5.0_2.15__g2ef1ebc.ari:/opt/cray/ari/modulefiles/xpmem/2.2.4-6.0.5.1_8.18__g35d5e73.ari:/opt/cray/ari/modulefiles/job/2.2.2-6.0.5.0_8.47__g3c644b5.ari:/opt/cray/ari/modulefiles/dvs/2.7_2.2.65-6.0.5.2_16.2__gbec2cb0:/opt/cray/ari/modulefiles/alps/6.5.28-6.0.5.0_18.6__g13a91b6.ari:/opt/cray/ari/modulefiles/rca/2.2.16-6.0.5.0_15.34__g5e09e6d.ari:/opt/cray/pe/modulefiles/atp/2.1.1:/opt/cray/pe/modulefiles/PrgEnv-gnu/6.0.4:/usr/common/software/modulefiles/gsl/2.1:/opt/cray/pe/modulefiles/cray-fftw/3.3.6.2:/usr/common/software/modulefiles/cfitsio/3.410:/usr/common/software/modulefiles/python/2.7-anaconda-4.4'
p118
sS'MODULE_VERSION'
p119
S'3.2.10.6'
p120
sS'LIBSCI_VERSION'
p121
S'18.03.1'
p122
sS'CFITSIO_INC'
p123
S'/global/common/sw/cray/cnl6/haswell/cfitsio/3.410/gcc/6.3.0/ws46fwk/include'
p124
sS'CRAY_XPMEM_INCLUDE_OPTS'
p125
S'-I/opt/cray/xpmem/2.2.4-6.0.5.1_8.18__g35d5e73.ari/include'
p126
sS'FC'
p127
S'gfortran'
p128
sS'PE_MPICH_DEFAULT_GENCOMPS_GNU'
p129
S'51 49'
p130
sS'HOME'
p131
S'/global/homes/s/seccolf'
p132
sS'BASH_ENV'
p133
S'/global/homes/s/seccolf/.bashrc'
p134
sS'PE_LIBSCI_GENCOMPS_INTEL_x86_64'
p135
S'160'
p136
sS'PE_GA_DEFAULT_FIXED_PRGENV'
p137
S'CRAY INTEL'
p138
sS'DVS_MAXNODES'
p139
S'1__'
p140
sS'PE_GA_DEFAULT_GENCOMPILERS_GNU'
p141
S'5.1 4.9'
p142
sS'PE_FORTRAN_PKGCONFIG_LIBS'
p143
S'mpichf90'
p144
sS'PYTHONUSERBASE'
p145
S'/global/homes/s/seccolf/.local/cori/2.7-anaconda-4.4'
p146
sS'PE_PAPI_DEFAULT_ACCEL_LIBS_nvidia35'
p147
S',-lcupti,-lcudart,-lcuda'
p148
sS'NNTPSERVER'
p149
S'news'
p150
sS'ATP_IGNORE_SIGTERM'
p151
g15
sS'HOST'
p152
S'cori03'
p153
sS'PE_NETCDF_HDF5PARALLEL_DEFAULT_VOLATILE_PRGENV'
p154
S'GNU'
p155
sS'PE_MPICH_DEFAULT_GENCOMPILERS_GNU'
p156
S'5.1 4.9'
p157
sS'PE_MPICH_MODULE_NAME'
p158
S'cray-mpich'
p159
sS'MAN_POSIXLY_CORRECT'
p160
g15
sS'PE_TPSL_64_DEFAULT_GENCOMPS_CRAY_x86_skylake'
p161
S'86'
p162
sS'PE_FFTW_DEFAULT_VOLATILE_PKGCONFIG_PATH'
p163
S'/opt/cray/pe/fftw/3.3.6.3/@PE_FFTW_DEFAULT_TARGET@/lib/pkgconfig'
p164
sS'PE_PETSC_DEFAULT_GENCOMPS_INTEL_haswell'
p165
S'160'
p166
sS'NERSC_HOST'
p167
S'cori'
p168
sS'PE_PARALLEL_NETCDF_DEFAULT_VOLATILE_PKGCONFIG_PATH'
p169
S'/opt/cray/pe/parallel-netcdf/1.8.1.3/@PRGENV@/@PE_PARALLEL_NETCDF_DEFAULT_GENCOMPS@/lib/pkgconfig'
p170
sS'JRE_HOME'
p171
S'/usr/lib64/jvm/java/jre'
p172
sS'PE_TPSL_DEFAULT_VOLATILE_PKGCONFIG_PATH'
p173
S'/opt/cray/pe/tpsl/17.11.1/@PRGENV@/@PE_TPSL_DEFAULT_GENCOMPS@/@PE_TPSL_DEFAULT_TARGET@/lib/pkgconfig'
p174
sS'PE_LIBSCI_DEFAULT_GENCOMPS_GNU_x86_64'
p175
S'71 61 51 49'
p176
sS'PE_LIBSCI_REQUIRED_PRODUCTS'
p177
S'PE_MPICH'
p178
sS'PE_HDF5_DEFAULT_FIXED_PRGENV'
p179
S'CRAY INTEL'
p180
sS'LIBGL_ALWAYS_INDIRECT'
p181
g15
sS'PE_SMA_DEFAULT_VOLATILE_PKGCONFIG_PATH'
p182
S'/opt/cray/pe/mpt/7.7.0/gni/sma@PE_SMA_DEFAULT_DIR_DEFAULT64@/lib64/pkgconfig'
p183
sS'PE_TPSL_DEFAULT_VOLATILE_PRGENV'
p184
S'CRAY CRAY64 GNU GNU64 INTEL INTEL64'
p185
sS'PE_TPSL_64_DEFAULT_GENCOMPS_CRAY_interlagos'
p186
S'86'
p187
sS'PE_FFTW_TARGET_mic_knl'
p188
S'mic_knl'
p189
sS'PE_MPICH_PKGCONFIG_VARIABLES'
p190
S'PE_MPICH_NV_LIBS_@accelerator@:PE_MPICH_ALTERNATE_LIBS_@multithreaded@:PE_MPICH_ALTERNATE_LIBS_@dpm@'
p191
sS'LIBSCI_BASE_DIR'
p192
S'/opt/cray/pe/libsci/18.03.1'
p193
sS'PE_TPSL_64_DEFAULT_GENCOMPS_GNU_x86_skylake'
p194
S'61'
p195
sS'ATP_POST_LINK_OPTS'
p196
S'-Wl,-L/opt/cray/pe/atp/2.1.1/libApp/ '
p197
sS'COLORTERM'
p198
g15
sS'PE_TPSL_64_DEFAULT_GENCOMPS_GNU_sandybridge'
p199
S'51 49'
p200
sS'PE_FFTW_TARGET_haswell'
p201
S'haswell'
p202
sS'PE_HDF5_PARALLEL_DEFAULT_VOLATILE_PKGCONFIG_PATH'
p203
S'/opt/cray/pe/hdf5-parallel/1.10.1.1/@PRGENV@/@PE_HDF5_PARALLEL_DEFAULT_GENCOMPS@/lib/pkgconfig'
p204
sS'PE_GA_DEFAULT_VOLATILE_PRGENV'
p205
S'GNU'
p206
sS'OLDPWD'
p207
S'/global/homes/s/seccolf/des-science/2pt_pipeline'
p208
sS'LOADEDMODULES'
p209
S'modules/3.2.10.6:nsg/1.2.0:gcc/7.3.0:craype-haswell:craype-network-aries:craype/2.5.14:cray-mpich/7.7.0:altd/2.0:darshan/3.1.4:cray-libsci/18.03.1:udreg/2.3.2-6.0.5.0_13.12__ga14955a.ari:ugni/6.0.14-6.0.5.0_16.9__g19583bb.ari:pmi/5.0.13:dmapp/7.1.1-6.0.5.0_49.8__g1125556.ari:gni-headers/5.0.12-6.0.5.0_2.15__g2ef1ebc.ari:xpmem/2.2.4-6.0.5.1_8.18__g35d5e73.ari:job/2.2.2-6.0.5.0_8.47__g3c644b5.ari:dvs/2.7_2.2.65-6.0.5.2_16.2__gbec2cb0:alps/6.5.28-6.0.5.0_18.6__g13a91b6.ari:rca/2.2.16-6.0.5.0_15.34__g5e09e6d.ari:atp/2.1.1:PrgEnv-gnu/6.0.4:gsl/2.1:cray-fftw/3.3.6.2:cfitsio/3.410:python/2.7-anaconda-4.4'
p210
sS'PE_PETSC_DEFAULT_GENCOMPILERS_CRAY_x86_64'
p211
S'8.6'
p212
sS'PE_PETSC_DEFAULT_GENCOMPS_INTEL_sandybridge'
p213
S'160'
p214
sS'PE_PAPI_DEFAULT_PKGCONFIG_VARIABLES'
p215
S'PE_PAPI_ACCEL_LIBS_@accelerator@'
p216
sS'PE_MPICH_ALTERNATE_LIBS_multithreaded'
p217
S'_mt'
p218
sS'CRAY_LD_LIBRARY_PATH'
p219
S'/opt/cray/pe/fftw/3.3.6.2/haswell/lib:/opt/cray/rca/2.2.16-6.0.5.0_15.34__g5e09e6d.ari/lib64:/opt/cray/alps/6.5.28-6.0.5.0_18.6__g13a91b6.ari/lib64:/opt/cray/xpmem/2.2.4-6.0.5.1_8.18__g35d5e73.ari/lib64:/opt/cray/dmapp/7.1.1-6.0.5.0_49.8__g1125556.ari/lib64:/opt/cray/pe/pmi/5.0.13/lib64:/opt/cray/ugni/6.0.14-6.0.5.0_16.9__g19583bb.ari/lib64:/opt/cray/udreg/2.3.2-6.0.5.0_13.12__ga14955a.ari/lib64:/opt/cray/pe/libsci/18.03.1/GNU/7.1/x86_64/lib:/usr/common/software/darshan/3.1.4/lib:/opt/cray/pe/mpt/7.7.0/gni/mpich-gnu/5.1/lib'
p220
sS'PE_TRILINOS_DEFAULT_VOLATILE_PRGENV'
p221
S'CRAY GNU INTEL'
p222
sS'PE_LIBSCI_DEFAULT_VOLATILE_PRGENV'
p223
S'CRAY GNU INTEL'
p224
sS'PE_PAPI_DEFAULT_ACCEL_LIBS'
p225
g94
sS'PYTHONPATH'
p226
S'/global/u2/s/seccolf/cosmosis:/opt/ovis/lib/python2.7/site-packages:/global/homes/s/seccolf/cosmosis/cosmosis-standard-library/likelihood/2pt'
p227
sS'LESS'
p228
S'-M -I -R'
p229
sS'PE_TPSL_DEFAULT_GENCOMPILERS_GNU_interlagos'
p230
S'5.1 4.9'
p231
sS'PE_LIBSCI_GENCOMPILERS_GNU_x86_64'
p232
S'7.1 6.1 5.1 4.9'
p233
sS'PE_TPSL_64_DEFAULT_GENCOMPILERS_CRAY_x86_64'
p234
S'8.6'
p235
sS'FFTW_INC'
p236
S'/opt/cray/pe/fftw/3.3.6.2/haswell/include'
p237
sS'CRAYPE_NETWORK_TARGET'
p238
S'aries'
p239
sS'USERMODULES'
p240
S'PrgEnv-cray:PrgEnv-gnu:PrgEnv-intel:PrgEnv-pathscale:PrgEnv-pgi:acml:alps:apprentice:apprentice2:atp:blcr:cce:chapel:cray-ccdb:cray-fftw:cray-ga:cray-hdf5:cray-hdf5-parallel:cray-lgdb:cray-libsci:cray-libsci_acc:cray-mpich:cray-mpich-compat:cray-mpich2:cray-netcdf:cray-netcdf-hdf5parallel:cray-parallel-netcdf:cray-petsc:cray-petsc-complex:cray-shmem:cray-snplauncher:cray-tpsl:cray-trilinos:craypat:craype:craypkg-gen:cudatoolkit:ddt:fftw:ga:gcc:hdf5:hdf5-parallel:intel:iobuf:java:lgdb:libfast:libsci_acc:mpich1:netcdf:netcdf-hdf5parallel:netcdf-nofsync:netcdf-nofsync-hdf5parallel:ntk:onesided:papi:parallel-netcdf:pathscale:perftools:perftools-lite:petsc:petsc-complex:pgi:pmi:stat:totalview:tpsl:trilinos:xt-asyncpe:xt-craypat:xt-lgdb:xt-libsci:xt-mpich2:xt-mpt:xt-papi:xt-shmem:xt-totalview'
p241
sS'GCC_PATH'
p242
S'/opt/gcc/7.3.0'
p243
sS'XKEYSYMDB'
p244
S'/usr/X11R6/lib/X11/XKeysymDB'
p245
sS'FFTW_VERSION'
p246
S'3.3.6.2'
p247
sS'PE_TPSL_DEFAULT_GENCOMPILERS_GNU_x86_skylake'
p248
S'6.1'
p249
sS'PE_TPSL_64_DEFAULT_GENCOMPS_INTEL_x86_skylake'
p250
S'160'
p251
sS'CRAY_CPU_TARGET'
p252
S'haswell'
p253
sS'PE_PKGCONFIG_PRODUCTS'
p254
S'PE_FFTW:PE_LIBSCI:PE_MPICH'
p255
sS'PE_LIBSCI_MODULE_NAME'
p256
S'cray-libsci/18.03.1'
p257
sS'PE_FFTW_DEFAULT_REQUIRED_PRODUCTS'
p258
S'PE_MPICH'
p259
sS'PELOCAL_PRGENV'
p260
S'true'
p261
sS'PE_PETSC_DEFAULT_GENCOMPS_INTEL_skylake'
p262
S'160'
p263
sS'PE_TPSL_DEFAULT_GENCOMPS_INTEL_x86_64'
p264
S'160'
p265
sS'TARGETMODULES'
p266
S'craype-abudhabi:craype-abudhabi-cu:craype-accel-host:craype-accel-nvidia20:craype-accel-nvidia30:craype-accel-nvidia35:craype-barcelona:craype-broadwell:craype-haswell:craype-hugepages128K:craype-hugepages128M:craype-hugepages16M:craype-hugepages256M:craype-hugepages2M:craype-hugepages32M:craype-hugepages4M:craype-hugepages512K:craype-hugepages512M:craype-hugepages64M:craype-hugepages8M:craype-intel-knc:craype-interlagos:craype-interlagos-cu:craype-istanbul:craype-ivybridge:craype-mc12:craype-mc8:craype-mic-knl:craype-network-aries:craype-network-gemini:craype-network-infiniband:craype-network-none:craype-network-seastar:craype-sandybridge:craype-shanghai:craype-target-compute_node:craype-target-local_host:craype-target-native:craype-xeon:xtpe-barcelona:xtpe-interlagos:xtpe-interlagos-cu:xtpe-istanbul:xtpe-mc12:xtpe-mc8:xtpe-network-gemini:xtpe-network-seastar:xtpe-shanghai:xtpe-target-native:xtpe-xeon'
p267
sS'PE_TPSL_64_DEFAULT_GENCOMPS_CRAY_mic_knl'
p268
S'86'
p269
sS'PE_PAPI_DEFAULT_ACCEL_FAMILY_LIBS_nvidia'
p270
S',-lcupti,-lcudart,-lcuda'
p271
sS'CRAY_DMAPP_POST_LINK_OPTS'
p272
S'-L/opt/cray/dmapp/7.1.1-6.0.5.0_49.8__g1125556.ari/lib64'
p273
sS'LS_COLORS'
p274
S'no=00:fi=00:di=01;34:ln=00;36:pi=40;33:so=01;35:do=01;35:bd=40;33;01:cd=40;33;01:or=41;33;01:ex=00;32:*.cmd=00;32:*.exe=01;32:*.com=01;32:*.bat=01;32:*.btm=01;32:*.dll=01;32:*.tar=00;31:*.tbz=00;31:*.tgz=00;31:*.rpm=00;31:*.deb=00;31:*.arj=00;31:*.taz=00;31:*.lzh=00;31:*.lzma=00;31:*.zip=00;31:*.zoo=00;31:*.z=00;31:*.Z=00;31:*.gz=00;31:*.bz2=00;31:*.tb2=00;31:*.tz2=00;31:*.tbz2=00;31:*.xz=00;31:*.avi=01;35:*.bmp=01;35:*.fli=01;35:*.gif=01;35:*.jpg=01;35:*.jpeg=01;35:*.mng=01;35:*.mov=01;35:*.mpg=01;35:*.pcx=01;35:*.pbm=01;35:*.pgm=01;35:*.png=01;35:*.ppm=01;35:*.tga=01;35:*.tif=01;35:*.xbm=01;35:*.xpm=01;35:*.dl=01;35:*.gl=01;35:*.wmv=01;35:*.aiff=00;32:*.au=00;32:*.mid=00;32:*.mp3=00;32:*.ogg=00;32:*.voc=00;32:*.wav=00;32:'
p275
sS'PE_SMA_DEFAULT_COMPFLAG'
p276
g94
sS'PE_PETSC_DEFAULT_GENCOMPS_GNU_x86_64'
p277
S'53 49'
p278
sS'JAVA_ROOT'
p279
S'/usr/lib64/jvm/java'
p280
sS'PE_TPSL_DEFAULT_GENCOMPS_CRAY_sandybridge'
p281
S'86'
p282
sS'MODULE_VERSION_STACK'
p283
S'3.2.10.6'
p284
sS'CMAKE_PREFIX_PATH'
p285
S'/global/common/sw/cray/cnl6/haswell/cfitsio/3.410/gcc/6.3.0/ws46fwk'
p286
sS'PE_MPICH_PKGCONFIG_LIBS'
p287
S'mpich'
p288
sS'SHLVL'
p289
g15
sS'CRAY_ALPS_INCLUDE_OPTS'
p290
S'-I/opt/cray/alps/6.5.28-6.0.5.0_18.6__g13a91b6.ari/include'
p291
sS'PE_MPICH_DEFAULT_DIR_CRAY_DEFAULT64'
p292
S'64'
p293
sS'PE_LIBSCI_PKGCONFIG_VARIABLES'
p294
S'PE_LIBSCI_OMP_REQUIRES_@openmp@:PE_SCI_EXT_LIBPATH:PE_SCI_EXT_LIBNAME'
p295
sS'CRAY_XPMEM_POST_LINK_OPTS'
p296
S'-L/opt/cray/xpmem/2.2.4-6.0.5.1_8.18__g35d5e73.ari/lib64'
p297
sS'PE_PETSC_DEFAULT_GENCOMPILERS_CRAY_sandybridge'
p298
S'8.6'
p299
sS'PE_TPSL_DEFAULT_GENCOMPS_CRAY_mic_knl'
p300
S'86'
p301
sS'PE_PETSC_DEFAULT_REQUIRED_PRODUCTS'
p302
S'PE_MPICH:PE_LIBSCI:PE_HDF5_PARALLEL:PE_TPSL'
p303
sS'XTPE_NETWORK_TARGET'
p304
S'aries'
p305
sS'PE_TPSL_DEFAULT_GENCOMPS_INTEL_mic_knl'
p306
S'160'
p307
sS'CFITSIO_LFLAGS'
p308
S'-L/global/common/sw/cray/cnl6/haswell/cfitsio/3.410/gcc/6.3.0/ws46fwk/lib -lcfitsio'
p309
sS'PE_TPSL_64_DEFAULT_GENCOMPS_INTEL_mic_knl'
p310
S'160'
p311
sS'PE_PETSC_DEFAULT_GENCOMPS_INTEL_x86_64'
p312
S'160'
p313
sS'LS_OPTIONS'
p314
S'-N --color=none -T 0'
p315
sS'MODULEPATH'
p316
S'/opt/cray/pe/craype/2.5.14/modulefiles:/opt/cray/pe/modulefiles:/opt/cray/modulefiles:/opt/modulefiles:/usr/common/software/modulefiles:/usr/syscom/nsg/modulefiles:/usr/syscom/nsg/opt/modulefiles:/usr/common/das/modulefiles:/usr/common/ftg/modulefiles:/opt/cray/craype/default/modulefiles:/opt/cray/ari/modulefiles'
p317
sS'ALT_LINKER'
p318
S'/usr/common/software/altd/2.0/bin/ld'
p319
sS'PE_HDF5_DEFAULT_GENCOMPILERS_GNU'
p320
S'5.1 4.9'
p321
sS'PE_PETSC_DEFAULT_GENCOMPS_CRAY_skylake'
p322
S'86'
p323
sS'PE_TPSL_64_DEFAULT_GENCOMPS_INTEL_sandybridge'
p324
S'160'
p325
sS'PE_TPSL_64_DEFAULT_GENCOMPS_CRAY_x86_64'
p326
S'86'
p327
sS'INTEL_LICENSE_FILE'
p328
S'28518@crayintel.licenses.nersc.gov:28518@intel.licenses.nersc.gov'
p329
sS'LESSKEY'
p330
S'/etc/lesskey.bin'
p331
sS'PE_FFTW_DEFAULT_TARGET_interlagos'
p332
S'interlagos'
p333
sS'PE_FFTW_OMP_REQUIRES_openmp'
p334
S'_mp'
p335
sS'PE_TRILINOS_DEFAULT_GENCOMPILERS_GNU_x86_64'
p336
S'5.1 4.9'
p337
sS'PE_TPSL_64_DEFAULT_GENCOMPILERS_GNU_interlagos'
p338
S'5.1 4.9'
p339
sS'PE_MPICH_DEFAULT_GENCOMPS_CRAY'
p340
S'86'
p341
sS'PE_PETSC_DEFAULT_GENCOMPS_CRAY_sandybridge'
p342
S'86'
p343
sS'CONDA_SHLVL'
p344
g15
sS'ALTD_PATH'
p345
S'/usr/common/software/altd/2.0'
p346
sS'CONDA_PREFIX'
p347
S'/global/u2/s/seccolf/cosmosis/env'
p348
sS'GSL_DIR'
p349
S'/usr/common/software/gsl/2.1/gnu'
p350
sS'PE_FFTW_DEFAULT_TARGET_ivybridge'
p351
S'ivybridge'
p352
sS'PE_TPSL_DEFAULT_GENCOMPILERS_INTEL_haswell'
p353
S'16.0'
p354
sS'PE_TPSL_64_DEFAULT_GENCOMPILERS_INTEL_mic_knl'
p355
S'16.0'
p356
sS'ATP_HOME'
p357
S'/opt/cray/pe/atp/2.1.1'
p358
sS'MPIFC'
p359
S'ftn'
p360
sS'GSL_LIB'
p361
S'/usr/common/software/gsl/2.1/gnu/lib'
p362
sS'PE_FFTW_TARGET_ivybridge'
p363
S'ivybridge'
p364
sS'CRAY_UGNI_POST_LINK_OPTS'
p365
S'-L/opt/cray/ugni/6.0.14-6.0.5.0_16.9__g19583bb.ari/lib64'
p366
sS'COSMOSIS_ALT_COMPILERS'
p367
g15
sS'SHMEM_ABORT_ON_ERROR'
p368
g15
sS'PKG_CONFIG_PATH_DEFAULT'
p369
S'/opt/cray/pe/papi/5.5.1.4/lib64/pkgconfig'
p370
sS'LESSOPEN'
p371
S'lessopen.sh %s'
p372
sS'PE_TPSL_64_DEFAULT_GENCOMPILERS_GNU_x86_skylake'
p373
S'6.1'
p374
sS'PE_PARALLEL_NETCDF_DEFAULT_VOLATILE_PRGENV'
p375
S'GNU'
p376
sS'PE_CXX_PKGCONFIG_LIBS'
p377
S'mpichcxx'
p378
sS'PE_TPSL_DEFAULT_GENCOMPILERS_CRAY_x86_skylake'
p379
S'8.6'
p380
sS'SSH_TTY'
p381
S'/dev/pts/43'
p382
sS'PE_TPSL_DEFAULT_GENCOMPILERS_GNU_sandybridge'
p383
S'5.1 4.9'
p384
sS'PE_TPSL_64_DEFAULT_GENCOMPILERS_INTEL_haswell'
p385
S'16.0'
p386
sS'PE_TPSL_DEFAULT_GENCOMPILERS_CRAY_x86_64'
p387
S'8.6'
p388
sS'PE_TRILINOS_DEFAULT_GENCOMPS_GNU_x86_64'
p389
S'51 49'
p390
sS'PE_PARALLEL_NETCDF_DEFAULT_FIXED_PRGENV'
p391
S'CRAY INTEL'
p392
sS'PE_FFTW_DEFAULT_TARGET_broadwell'
p393
S'broadwell'
p394
sS'PE_MPICH_GENCOMPILERS_GNU'
p395
S'5.1 4.9'
p396
sS'NSG_HOME'
p397
S'/usr/syscom/nsg'
p398
sS'PE_TPSL_DEFAULT_GENCOMPS_GNU_x86_64'
p399
S'51 49'
p400
sS'SSH_CLIENT'
p401
S'128.91.187.80 49487 22'
p402
sS'LOGNAME'
p403
S'seccolf'
p404
sS'PE_MPICH_DEFAULT_VOLATILE_PKGCONFIG_PATH'
p405
S'/opt/cray/pe/mpt/7.7.0/gni/mpich-@PRGENV@@PE_MPICH_DEFAULT_DIR_DEFAULT64@/@PE_MPICH_DEFAULT_GENCOMPS@/lib/pkgconfig'
p406
sS'PATH'
p407
S'/global/u2/s/seccolf/cosmosis/env/bin:/global/u2/s/seccolf/cosmosis/bin:/usr/common/software/python/2.7-anaconda-4.4/bin:/usr/common/software/python/2.7-anaconda-4.4/lib/python2.7/site-packages/mpi4py/bin:/opt/cray/pe/fftw/3.3.6.2/haswell/bin:/usr/common/software/gsl/2.1/gnu/bin:/opt/cray/rca/2.2.16-6.0.5.0_15.34__g5e09e6d.ari/bin:/opt/cray/alps/6.5.28-6.0.5.0_18.6__g13a91b6.ari/sbin:/opt/cray/job/2.2.2-6.0.5.0_8.47__g3c644b5.ari/bin:/usr/common/software/darshan/3.1.4/bin:/usr/common/software/altd/2.0/bin:/usr/common/software/bin:/usr/common/mss/bin:/usr/common/nsg/bin:/opt/cray/pe/mpt/7.7.0/gni/bin:/opt/cray/pe/craype/2.5.14/bin:/opt/gcc/7.3.0/bin:/opt/ovis/bin:/opt/ovis/sbin:/usr/syscom/nsg/sbin:/usr/syscom/nsg/bin:/opt/cray/pe/modules/3.2.10.6/bin:/usr/local/bin:/usr/bin:/bin:/usr/bin/X11:/usr/games:/usr/lib/mit/bin:/usr/lib/mit/sbin:/opt/cray/pe/bin'
p408
sS'DVS_INCLUDE_OPTS'
p409
S'-I/opt/cray/dvs/2.7_2.2.65-6.0.5.2_16.2__gbec2cb0/include'
p410
sS'PE_PETSC_DEFAULT_GENCOMPS_CRAY_interlagos'
p411
S'86'
p412
sS'PE_FFTW_TARGET_broadwell'
p413
S'broadwell'
p414
sS'PE_TPSL_64_DEFAULT_GENCOMPS_INTEL_haswell'
p415
S'160'
p416
sS'PE_HDF5_PARALLEL_DEFAULT_REQUIRED_PRODUCTS'
p417
S'PE_MPICH'
p418
sS'CRAY_PRE_COMPILE_OPTS'
p419
S'-hnetwork=aries'
p420
sS'PE_TPSL_DEFAULT_GENCOMPILERS_INTEL_x86_skylake'
p421
S'16.0'
p422
sS'MPICH_DIR'
p423
S'/opt/cray/pe/mpt/7.7.0/gni/mpich-gnu/5.1'
p424
sS'PE_FFTW2_DEFAULT_REQUIRED_PRODUCTS'
p425
S'PE_MPICH'
p426
sS'PE_TPSL_64_DEFAULT_GENCOMPILERS_INTEL_interlagos'
p427
S'16.0'
p428
sS'PE_PETSC_DEFAULT_GENCOMPILERS_CRAY_mic_knl'
p429
S'8.6'
p430
sS'PE_LIBSCI_OMP_REQUIRES'
p431
g94
sS'PE_INTEL_DEFAULT_FIXED_PKGCONFIG_PATH'
p432
S'/opt/cray/pe/parallel-netcdf/1.8.1.3/INTEL/16.0/lib/pkgconfig:/opt/cray/pe/netcdf-hdf5parallel/4.4.1.1.6/INTEL/16.0/lib/pkgconfig:/opt/cray/pe/netcdf/4.4.1.1.6/INTEL/16.0/lib/pkgconfig:/opt/cray/pe/mpt/7.7.0/gni/mpich-intel/16.0/lib/pkgconfig:/opt/cray/pe/hdf5-parallel/1.10.1.1/INTEL/16.0/lib/pkgconfig:/opt/cray/pe/hdf5/1.10.1.1/INTEL/16.0/lib/pkgconfig:/opt/cray/pe/ga/5.3.0.7/INTEL/15.0/lib/pkgconfig'
p433
sS'PE_MPICH_FIXED_PRGENV'
p434
S'INTEL'
p435
sS'PE_PETSC_DEFAULT_GENCOMPILERS_GNU_skylake'
p436
S'6.1'
p437
sS'PE_PETSC_DEFAULT_GENCOMPILERS_INTEL_mic_knl'
p438
S'16.0'
p439
sS'ALTD_SELECT_OFF_USERS'
p440
g94
sS'PE_FFTW_OMP_REQUIRES'
p441
S' '
p442
sS'PE_SMA_DEFAULT_PKGCONFIG_VARIABLES'
p443
S'PE_SMA_COMPFLAG_@prgenv@'
p444
sS'PE_PAPI_DEFAULT_ACCELL_FAMILY_LIBS'
p445
g94
sS'PE_PKGCONFIG_LIBS'
p446
S'AtpSigHandler:cray-rca:libsci_mpi:libsci:darshan-runtime:mpich'
p447
sS'PE_TRILINOS_DEFAULT_GENCOMPILERS_CRAY_x86_64'
p448
S'8.6'
p449
sS'PE_SMA_DEFAULT_DIR_CRAY_DEFAULT64'
p450
S'64'
p451
sS'XCURSOR_THEME'
p452
S'DMZ'
p453
sS'PE_TPSL_64_DEFAULT_GENCOMPILERS_CRAY_x86_skylake'
p454
S'8.6'
p455
sS'CRAYPE_DIR'
p456
S'/opt/cray/pe/craype/2.5.14'
p457
sS'XDG_DATA_DIRS'
p458
S'/usr/share'
p459
sS'PE_MPICH_TARGET_VAR_nvidia35'
p460
S'-lcudart'
p461
sS'CRAY_PMI_INCLUDE_OPTS'
p462
S'-I/opt/cray/pe/pmi/5.0.13/include'
p463
sS'MANPATH'
p464
S'/opt/cray/pe/fftw/3.3.6.2/share/man:/usr/common/software/gsl/2.1/gnu/share/man:/opt/cray/pe/atp/2.1.1/man:/opt/cray/alps/6.5.28-6.0.5.0_18.6__g13a91b6.ari/man:/opt/cray/job/2.2.2-6.0.5.0_8.47__g3c644b5.ari/man:/opt/cray/pe/pmi/5.0.13/man:/opt/cray/pe/libsci/18.03.1/man:/opt/cray/pe/man/csmlversion:/usr/common/software/man:/usr/common/mss/man:/usr/common/nsg/man:/opt/cray/pe/mpt/7.7.0/gni/man/mpich:/opt/cray/pe/craype/2.5.14/man:/opt/gcc/7.3.0/snos/share/man:/usr/syscom/nsg/man:/opt/cray/pe/modules/3.2.10.6/share/man:/usr/local/man:/usr/share/man:/opt/cray/share/man:/opt/cray/pe/man:/opt/cray/share/man'
p465
sS'COSMOSIS_SRC_DIR'
p466
S'/global/u2/s/seccolf/cosmosis'
p467
sS'PE_TPSL_DEFAULT_GENCOMPILERS_GNU_x86_64'
p468
S'5.1 4.9'
p469
sS'PROFILEREAD'
p470
S'true'
p471
sS'PE_PETSC_DEFAULT_GENCOMPS_GNU_sandybridge'
p472
S'53 49'
p473
sS'PE_PETSC_DEFAULT_GENCOMPS_GNU_mic_knl'
p474
S'53'
p475
sS'ALTD_SELECT_USERS'
p476
g94
sS'PE_NETCDF_HDF5PARALLEL_DEFAULT_REQUIRED_PRODUCTS'
p477
S'PE_HDF5_PARALLEL:PE_MPICH'
p478
sS'PE_TPSL_64_DEFAULT_GENCOMPS_GNU_interlagos'
p479
S'51 49'
p480
sS'PE_FFTW_TARGET_sandybridge'
p481
S'sandybridge'
p482
sS'PE_PETSC_DEFAULT_GENCOMPILERS_GNU_interlagos'
p483
S'5.3 4.9'
p484
sS'PE_PETSC_DEFAULT_GENCOMPILERS_CRAY_haswell'
p485
S'8.6'
p486
sS'CFITSIO'
p487
S' -I/global/common/sw/cray/cnl6/haswell/cfitsio/3.410/gcc/6.3.0/ws46fwk/include -L/global/common/sw/cray/cnl6/haswell/cfitsio/3.410/gcc/6.3.0/ws46fwk/lib -lcfitsio'
p488
sS'PE_FFTW_VOLATILE_PKGCONFIG_PATH'
p489
S'/opt/cray/pe/fftw/3.3.6.2/@PE_FFTW_TARGET@/lib/pkgconfig'
p490
sS'HOSTNAME'
p491
S'cori03'
p492
sS'PE_FFTW_DEFAULT_TARGET_mic_knl'
p493
S'mic_knl'
p494
sS'PE_LIBSCI_PKGCONFIG_LIBS'
p495
S'libsci_mpi:libsci'
p496
sS'PE_TPSL_DEFAULT_GENCOMPS_INTEL_sandybridge'
p497
S'160'
p498
sS'MACHTYPE'
p499
S'x86_64-suse-linux'
p500
sS'PE_NETCDF_HDF5PARALLEL_DEFAULT_FIXED_PRGENV'
p501
S'CRAY INTEL'
p502
sS'BASH_FUNC_module%%'
p503
S'() {  eval `/opt/cray/pe/modules/3.2.10.6/bin/modulecmd bash $*`\n}'
p504
sS'CRAY_MPICH_DIR'
p505
S'/opt/cray/pe/mpt/7.7.0/gni/mpich-gnu/5.1'
p506
sS'MINICOM'
p507
S'-c on'
p508
sS'PE_TPSL_64_DEFAULT_REQUIRED_PRODUCTS'
p509
S'PE_MPICH:PE_LIBSCI'
p510
sS'PE_MPICH_NV_LIBS'
p511
g94
sS'CVS_RSH'
p512
S'ssh'
p513
sS'PKGCONFIG_ENABLED'
p514
g15
sS'PE_PETSC_DEFAULT_GENCOMPILERS_CRAY_skylake'
p515
S'8.6'
p516
sS'PE_TPSL_64_DEFAULT_GENCOMPS_GNU_haswell'
p517
S'51 49'
p518
sS'PE_TPSL_DEFAULT_GENCOMPILERS_GNU_mic_knl'
p519
S'5.1'
p520
sS'PE_NETCDF_HDF5PARALLEL_DEFAULT_GENCOMPILERS_GNU'
p521
S'5.1 4.9'
p522
sS'DVS_VERSION'
p523
S'0.9.0'
p524
sS'PE_TPSL_DEFAULT_GENCOMPILERS_CRAY_mic_knl'
p525
S'8.6'
p526
sS'LIBRARYMODULES'
p527
S'acml:alps:cray-dwarf:cray-fftw:cray-ga:cray-hdf5:cray-hdf5-parallel:cray-libsci:cray-libsci_acc:cray-mpich:cray-mpich-abi:cray-mpich2:cray-netcdf:cray-netcdf-hdf5parallel:cray-parallel-netcdf:cray-petsc:cray-petsc-complex:cray-shmem:cray-tpsl:cray-trilinos:cudatoolkit:fftw:ga:hdf5:hdf5-parallel:iobuf:libfast:netcdf:netcdf-hdf5parallel:ntk:onesided:papi:petsc:petsc-complex:pmi:tpsl:trilinos:xt-libsci:xt-mpich2:xt-mpt:xt-papi'
p528
sS'MODULESHOME'
p529
S'/opt/cray/pe/modules/3.2.10.6'
p530
sS'PE_LIBSCI_DEFAULT_GENCOMPILERS_CRAY_x86_64'
p531
S'8.6'
p532
sS'PE_TPSL_DEFAULT_GENCOMPS_CRAY_haswell'
p533
S'86'
p534
sS'GCC_VERSION'
p535
S'7.3.0'
p536
sS'PE_FFTW_TARGET_share'
p537
S'share'
p538
sS'PE_PETSC_DEFAULT_GENCOMPS_CRAY_haswell'
p539
S'86'
p540
sS'PE_MPICH_NV_LIBS_nvidia35'
p541
S'-lcudart'
p542
sS'PE_LIBSCI_GENCOMPS_CRAY_x86_64'
p543
S'86'
p544
sS'PE_MPICH_CXX_PKGCONFIG_LIBS'
p545
S'mpichcxx'
p546
sS'PE_TRILINOS_DEFAULT_GENCOMPS_CRAY_x86_64'
p547
S'86'
p548
sS'XDG_CONFIG_DIRS'
p549
S'/etc/xdg'
p550
sS'PE_TPSL_DEFAULT_GENCOMPILERS_CRAY_haswell'
p551
S'8.6'
p552
sS'PE_NETCDF_DEFAULT_GENCOMPS_GNU'
p553
S'51 49'
p554
sS'PE_TPSL_64_DEFAULT_GENCOMPILERS_GNU_haswell'
p555
S'5.1 4.9'
p556
sS'PAGER'
p557
S'less'
p558
sS'PE_GA_DEFAULT_GENCOMPS_GNU'
p559
S'51 49'
p560
sS'LIBGL_DEBUG'
p561
S'quiet'
p562
sS'CRAY_PMI_POST_LINK_OPTS'
p563
S'-L/opt/cray/pe/pmi/5.0.13/lib64'
p564
sS'ATP_MRNET_COMM_PATH'
p565
S'/opt/cray/pe/atp/2.1.1/libexec/atp_mrnet_commnode_wrapper'
p566
sS'CRAY_MPICH2_VER'
p567
S'7.7.0'
p568
sS'PE_LIBSCI_GENCOMPILERS_INTEL_x86_64'
p569
S'16.0'
p570
sS'LD_LIBRARY_PATH'
p571
S'/global/common/sw/cray/cnl6/haswell/cfitsio/3.410/gcc/6.3.0/ws46fwk/lib:/usr/common/software/gsl/2.1/gnu/lib:/opt/cray/job/2.2.2-6.0.5.0_8.47__g3c644b5.ari/lib64:/opt/gcc/7.3.0/snos/lib64:/usr/syscom/nsg/lib:/global/u2/s/seccolf/cosmosis/cosmosis/datablock:/global/u2/s/seccolf/cosmosis/cosmosis-standard-library/likelihood/planck2015/plc-2.0/:/global/common/sw/cray/cnl6/haswell/cfitsio/3.410/gcc/6.3.0/ws46fwk/lib:/usr/common/software/gsl/2.1/gnu/lib:/opt/cray/pe/fftw/3.3.6.2/haswell/lib'
p572
sS'CRAY_LIBSCI_PREFIX_DIR'
p573
S'/opt/cray/pe/libsci/18.03.1/GNU/7.1/x86_64'
p574
sS'G_BROKEN_FILENAMES'
p575
g15
sS'ALLINEA_QUEUE_DLL'
p576
S'/opt/cray/pe/mpt/7.7.0/gni/mpich-gnu/5.1/lib/libtvmpich.so.3.0.1'
p577
sS'CONDA_DEFAULT_ENV'
p578
S'/global/u2/s/seccolf/cosmosis/env'
p579
sS'CC'
p580
S'gcc'
p581
sS'PE_TPSL_DEFAULT_GENCOMPS_INTEL_interlagos'
p582
S'160'
p583
sS'PE_TPSL_64_DEFAULT_GENCOMPILERS_GNU_sandybridge'
p584
S'5.1 4.9'
p585
sS'PE_TPSL_DEFAULT_GENCOMPS_CRAY_x86_skylake'
p586
S'86'
p587
sS'PE_TPSL_DEFAULT_GENCOMPS_GNU_sandybridge'
p588
S'51 49'
p589
sS'PE_LIBSCI_VOLATILE_PRGENV'
p590
S'CRAY GNU INTEL'
p591
sS'GPG_TTY'
p592
S'/dev/pts/43'
p593
sS'FROM_HEADER'
p594
g94
sS'LESSCLOSE'
p595
S'lessclose.sh %s %s'
p596
sS'PE_MPICH_VOLATILE_PKGCONFIG_PATH'
p597
S'/opt/cray/pe/mpt/7.7.0/gni/mpich-@PRGENV@@PE_MPICH_DIR_DEFAULT64@/@PE_MPICH_GENCOMPS@/lib/pkgconfig'
p598
sS'CRAY_ALPS_POST_LINK_OPTS'
p599
S'-L/opt/cray/alps/6.5.28-6.0.5.0_18.6__g13a91b6.ari/lib64'
p600
sS'OMP_NUM_THREADS'
p601
g15
sS'PE_TPSL_64_DEFAULT_GENCOMPILERS_CRAY_interlagos'
p602
S'8.6'
p603
sS'PE_MPICH_DEFAULT_GENCOMPILERS_CRAY'
p604
S'8.6'
p605
sS'MORE'
p606
S'-sl'
p607
sS'PE_PETSC_DEFAULT_GENCOMPILERS_CRAY_interlagos'
p608
S'8.6'
p609
sS'PE_GA_DEFAULT_VOLATILE_PKGCONFIG_PATH'
p610
S'/opt/cray/pe/ga/5.3.0.7/@PRGENV@/@PE_GA_DEFAULT_GENCOMPS@/lib/pkgconfig'
p611
sS'PE_TPSL_DEFAULT_GENCOMPS_GNU_mic_knl'
p612
S'51'
p613
sS'GNU_VERSION'
p614
S'7.3.0'
p615
sS'HOSTTYPE'
p616
S'x86_64'
p617
sS'CRAYPE_VERSION'
p618
S'2.5.14'
p619
sS'CFITSIO_LIB'
p620
S'/global/common/sw/cray/cnl6/haswell/cfitsio/3.410/gcc/6.3.0/ws46fwk/lib'
p621
sS'CRAY_PRGENVGNU'
p622
S'loaded'
p623
sS'TERM'
p624
S'xterm-256color'
p625
sS'PE_PETSC_DEFAULT_GENCOMPILERS_INTEL_sandybridge'
p626
S'16.0'
p627
sS'CFITSIO_DIR'
p628
S'/global/common/sw/cray/cnl6/haswell/cfitsio/3.410/gcc/6.3.0/ws46fwk'
p629
sS'CRAY_MPICH2_DIR'
p630
S'/opt/cray/pe/mpt/7.7.0/gni/mpich-gnu/5.1'
p631
sS'PE_TPSL_DEFAULT_REQUIRED_PRODUCTS'
p632
S'PE_MPICH:PE_LIBSCI'
p633
sS'CRAY_GNI_HEADERS_INCLUDE_OPTS'
p634
S'-I/opt/cray/gni-headers/5.0.12-6.0.5.0_2.15__g2ef1ebc.ari/include'
p635
sS'PE_PKG_CONFIG_PATH'
p636
S'/opt/cray/pe/cti/1.0.6/lib/pkgconfig'
p637
sS'PE_CRAY_DEFAULT_FIXED_PKGCONFIG_PATH'
p638
S'/opt/cray/pe/parallel-netcdf/1.8.1.3/CRAY/8.6/lib/pkgconfig:/opt/cray/pe/netcdf-hdf5parallel/4.4.1.1.6/CRAY/8.6/lib/pkgconfig:/opt/cray/pe/netcdf/4.4.1.1.6/CRAY/8.6/lib/pkgconfig:/opt/cray/pe/hdf5-parallel/1.10.1.1/CRAY/8.6/lib/pkgconfig:/opt/cray/pe/hdf5/1.10.1.1/CRAY/8.6/lib/pkgconfig:/opt/cray/pe/ga/5.3.0.7/CRAY/8.4/lib/pkgconfig'
p639
sS'PE_FFTW_DEFAULT_TARGET_x86_64'
p640
S'x86_64'
p641
sS'PE_PETSC_DEFAULT_GENCOMPILERS_INTEL_haswell'
p642
S'16.0'
p643
sS'PE_FFTW_TARGET_x86_skylake'
p644
S'x86_skylake'
p645
sS'PE_TPSL_64_DEFAULT_GENCOMPS_GNU_mic_knl'
p646
S'51'
p647
sS'FFTW_LIBRARY'
p648
S'/opt/cray/pe/fftw/3.3.6.2/haswell/lib'
p649
sS'PWD'
p650
S'/global/homes/s/seccolf/des-science/2pt_pipeline/pipeline'
p651
sS'PE_PETSC_DEFAULT_GENCOMPS_CRAY_mic_knl'
p652
S'86'
p653
sS'PE_TPSL_64_DEFAULT_GENCOMPILERS_CRAY_haswell'
p654
S'8.6'
p655
sS'PE_SMA_DEFAULT_COMPFLAG_GNU'
p656
S'-fcray-pointer'
p657
sS'PE_MPICH_NV_LIBS_nvidia60'
p658
S'-lcudart'
p659
sS'PE_TPSL_64_DEFAULT_GENCOMPILERS_CRAY_mic_knl'
p660
S'8.6'
p661
sS'PE_LIBSCI_DEFAULT_VOLATILE_PKGCONFIG_PATH'
p662
S'/opt/cray/pe/libsci/18.03.1/@PRGENV@/@PE_LIBSCI_DEFAULT_GENCOMPS@/@PE_LIBSCI_DEFAULT_TARGET@/lib/pkgconfig'
p663
sS'PE_FFTW_DEFAULT_TARGET_haswell'
p664
S'haswell'
p665
sS'PE_FFTW_DEFAULT_TARGET_sandybridge'
p666
S'sandybridge'
p667
sS'GSL'
p668
S'-I/usr/common/software/gsl/2.1/gnu/include -L/usr/common/software/gsl/2.1/gnu/lib -lgsl -lgslcblas'
p669
sS'ALTD_WORKDIR'
p670
S'/global/cscratch1/altd/logs'
p671
sS'SHELL'
p672
S'/bin/bash'
p673
sS'PE_HDF5_PARALLEL_DEFAULT_VOLATILE_PRGENV'
p674
S'GNU'
p675
sS'PE_PETSC_DEFAULT_VOLATILE_PRGENV'
p676
S'CRAY CRAY64 GNU GNU64 INTEL INTEL64'
p677
sS'LESS_ADVANCED_PREPROCESSOR'
p678
S'no'
p679
sS'PE_HDF5_DEFAULT_VOLATILE_PRGENV'
p680
S'GNU'
p681
sS'PE_TPSL_DEFAULT_GENCOMPILERS_CRAY_sandybridge'
p682
S'8.6'
p683
sS'PRGENVMODULES'
p684
S'PrgEnv-cray:PrgEnv-gnu:PrgEnv-intel:PrgEnv-pathscale:PrgEnv-pgi'
p685
sS'PE_TPSL_DEFAULT_GENCOMPILERS_CRAY_interlagos'
p686
S'8.6'
p687
sS'DMAPP_ABORT_ON_ERROR'
p688
g15
sS'XDG_RUNTIME_DIR'
p689
S'/run/user/71548'
p690
sS'PE_NETCDF_DEFAULT_VOLATILE_PRGENV'
p691
S'GNU'
p692
sS'PE_TPSL_64_DEFAULT_GENCOMPILERS_CRAY_sandybridge'
p693
S'8.6'
p694
sS'PE_PETSC_DEFAULT_GENCOMPILERS_GNU_sandybridge'
p695
S'5.3 4.9'
p696
sS'MPICH_ABORT_ON_ERROR'
p697
g15
sS'PE_ENV'
p698
S'GNU'
p699
sS'PE_PRODUCT_LIST'
p700
S'CRAY_RCA:CRAY_ALPS:DVS:CRAY_XPMEM:CRAY_DMAPP:CRAY_PMI:CRAY_UGNI:CRAY_UDREG:CRAY_LIBSCI:CRAYPE:CRAYPE_HASWELL:GNU:GCC'
p701
sS'SITE_MODULE_NAMES'
p702
S'darshan'
p703
sS'PE_MPICH_VOLATILE_PRGENV'
p704
S'CRAY GNU'
p705
sS'PE_PETSC_DEFAULT_GENCOMPS_CRAY_x86_64'
p706
S'86'
p707
sS'PE_PETSC_DEFAULT_GENCOMPS_GNU_interlagos'
p708
S'53 49'
p709
sS'PE_PETSC_DEFAULT_GENCOMPS_GNU_haswell'
p710
S'53 49'
p711
sS'SDK_HOME'
p712
S'/usr/lib64/jvm/java'
p713
sS'CXX'
p714
S'g++'
p715
sS'PE_MPICH_GENCOMPILERS_CRAY'
p716
S'8.6'
p717
sS'PE_MPICH_GENCOMPS_CRAY'
p718
S'86'
p719
sS'CRAY_RCA_POST_LINK_OPTS'
p720
S'-L/opt/cray/rca/2.2.16-6.0.5.0_15.34__g5e09e6d.ari/lib64 -lrca '
p721
sS'PE_MPICH_TARGET_VAR_nvidia20'
p722
S'-lcudart'
p723
sS'MAIL'
p724
S'/var/mail/seccolf'
p725
sS'CSHRCREAD'
p726
S'true'
p727
sS'SSH_CONNECTION'
p728
S'128.91.187.80 49487 128.55.209.23 22'
p729
sS'MPICH_MPIIO_DVS_MAXNODES'
p730
S'32'
p731
sS'PE_LIBSCI_DEFAULT_GENCOMPILERS_GNU_x86_64'
p732
S'7.1 6.1 5.1 4.9'
p733
sS'PE_TPSL_DEFAULT_GENCOMPILERS_INTEL_interlagos'
p734
S'16.0'
p735
sS'FFTW_DIR'
p736
S'/opt/cray/pe/fftw/3.3.6.2/haswell/lib'
p737
sS'PE_MPICH_DIR_CRAY_DEFAULT64'
p738
S'64'
p739
sS'ALTD_SELECT_ON'
p740
g29
sS'PE_TPSL_DEFAULT_GENCOMPILERS_GNU_haswell'
p741
S'5.1 4.9'
p742
sS'PE_FFTW_REQUIRED_PRODUCTS'
p743
S'PE_MPICH'
p744
sS'PE_LIBSCI_DEFAULT_GENCOMPS_CRAY_x86_64'
p745
S'86'
p746
sS'PE_PARALLEL_NETCDF_DEFAULT_GENCOMPS_GNU'
p747
S'51 49'
p748
sS'CRAY_UGNI_INCLUDE_OPTS'
p749
S'-I/opt/cray/ugni/6.0.14-6.0.5.0_16.9__g19583bb.ari/include'
p750
sS'PE_PETSC_DEFAULT_GENCOMPS_INTEL_interlagos'
p751
S'160'
p752
sS'PE_PKGCONFIG_DEFAULT_PRODUCTS'
p753
S'PE_TRILINOS:PE_TPSL_64:PE_TPSL:PE_PETSC:PE_PARALLEL_NETCDF:PE_NETCDF_HDF5PARALLEL:PE_NETCDF:PE_MPICH:PE_LIBSCI:PE_HDF5_PARALLEL:PE_HDF5:PE_GA:PE_FFTW2:PE_FFTW'
p754
sS'PE_FFTW_DEFAULT_TARGET_abudhabi'
p755
S'abudhabi'
p756
sS'PKG_CONFIG_PATH'
p757
S'/global/common/sw/cray/cnl6/haswell/cfitsio/3.410/gcc/6.3.0/ws46fwk/lib/pkgconfig:/usr/common/software/gsl/2.1/gnu/lib/pkgconfig:/usr/common/software/darshan/3.1.4/lib/pkgconfig:/opt/cray/rca/2.2.16-6.0.5.0_15.34__g5e09e6d.ari/lib64/pkgconfig:/opt/cray/alps/6.5.28-6.0.5.0_18.6__g13a91b6.ari/lib64/pkgconfig:/opt/cray/xpmem/2.2.4-6.0.5.1_8.18__g35d5e73.ari/lib64/pkgconfig:/opt/cray/gni-headers/5.0.12-6.0.5.0_2.15__g2ef1ebc.ari/lib64/pkgconfig:/opt/cray/dmapp/7.1.1-6.0.5.0_49.8__g1125556.ari/lib64/pkgconfig:/opt/cray/pe/pmi/5.0.13/lib64/pkgconfig:/opt/cray/ugni/6.0.14-6.0.5.0_16.9__g19583bb.ari/lib64/pkgconfig:/opt/cray/udreg/2.3.2-6.0.5.0_13.12__ga14955a.ari/lib64/pkgconfig:/opt/cray/pe/craype/2.5.14/pkg-config:/opt/cray/pe/iobuf/2.0.8/lib/pkgconfig:/opt/cray/pe/fftw/2.1.5.9/lib/pkgconfig:/opt/cray/pe/atp/2.1.1/lib/pkgconfig'
p758
sS'CRAY_MPICH_ROOTDIR'
p759
S'/opt/cray/pe/mpt/7.7.0'
p760
sS'XNLSPATH'
p761
S'/usr/share/X11/nls'
p762
sS'_'
p763
S'/usr/common/software/python/2.7-anaconda-4.4/bin/ipython'
p764
sS'ALTD_VERBOSE'
p765
g29
sS'CFITSIO_CFLAGS'
p766
S' -I/global/common/sw/cray/cnl6/haswell/cfitsio/3.410/gcc/6.3.0/ws46fwk/include'
p767
sS'WINDOWMANAGER'
p768
g94
sS'PE_TPSL_DEFAULT_GENCOMPS_GNU_haswell'
p769
S'51 49'
p770
sS'TOOLMODULES'
p771
S'apprentice:apprentice2:atp:chapel:cray-lgdb:cray-snplauncher:craypat:craypkg-gen:ddt:gdb:iobuf:papi:perftools:perftools-lite:stat:totalview:xt-craypat:xt-lgdb:xt-papi:xt-totalview'
p772
sS'PE_TRILINOS_DEFAULT_REQUIRED_PRODUCTS'
p773
S'PE_MPICH:PE_HDF5_PARALLEL:PE_NETCDF_HDF5PARALLEL:PE_LIBSCI:PE_TPSL'
p774
sS'LAPACK_LINK'
p775
S'-L/opt/cray/pe/libsci/18.03.1/GNU/7.1/x86_64/lib -lsci_gnu'
p776
sS'CRAY_DMAPP_INCLUDE_OPTS'
p777
S'-I/opt/cray/dmapp/7.1.1-6.0.5.0_49.8__g1125556.ari/include -I/opt/cray/gni-headers/5.0.12-6.0.5.0_2.15__g2ef1ebc.ari/include '
p778
sS'PE_TPSL_64_DEFAULT_GENCOMPS_INTEL_interlagos'
p779
S'160'
p780
sS'PE_TPSL_64_DEFAULT_GENCOMPILERS_INTEL_sandybridge'
p781
S'16.0'
p782
sS'PE_MPICH_ALTERNATE_LIBS_dpm'
p783
S'_dpm'
p784
sS'QT_SYSTEM_DIR'
p785
S'/usr/share/desktop-data'
p786
sS'PE_MPICH_NV_LIBS_nvidia20'
p787
S'-lcudart'
p788
sS'PE_PETSC_DEFAULT_GENCOMPILERS_INTEL_skylake'
p789
S'16.0'
p790
sS'PE_NETCDF_DEFAULT_FIXED_PRGENV'
p791
S'CRAY INTEL'
p792
sS'LIBRARY_PATH'
p793
S'/global/common/sw/cray/cnl6/haswell/cfitsio/3.410/gcc/6.3.0/ws46fwk/lib'
p794
sS'PE_INTEL_FIXED_PKGCONFIG_PATH'
p795
S'/opt/cray/pe/mpt/7.7.0/gni/mpich-intel/16.0/lib/pkgconfig'
p796
sS'PE_TPSL_DEFAULT_GENCOMPS_INTEL_haswell'
p797
S'160'
p798
sS'PE_TPSL_DEFAULT_GENCOMPS_GNU_interlagos'
p799
S'51 49'
p800
sS'PE_LIBSCI_DEFAULT_REQUIRED_PRODUCTS'
p801
S'PE_MPICH'
p802
sS'OSTYPE'
p803
S'linux'
p804
sS'CONDA_PROMPT_MODIFIER'
p805
S'(/global/u2/s/seccolf/cosmosis/env) '
p806
sS'FFTW_INCLUDE_DIR'
p807
S'/opt/cray/pe/fftw/3.3.6.2/haswell/include'
p808
sS'PE_NETCDF_DEFAULT_REQUIRED_PRODUCTS'
p809
S'PE_HDF5'
p810
sS'PE_NETCDF_HDF5PARALLEL_DEFAULT_GENCOMPS_GNU'
p811
S'51 49'
p812
sS'PE_TRILINOS_DEFAULT_GENCOMPS_INTEL_x86_64'
p813
S'160'
p814
sS'PE_PETSC_DEFAULT_GENCOMPILERS_INTEL_interlagos'
p815
S'16.0'
p816
sS'PE_TPSL_64_DEFAULT_GENCOMPILERS_INTEL_x86_skylake'
p817
S'16.0'
p818
sS'PE_HDF5_DEFAULT_REQUIRED_PRODUCTS'
p819
S'PE_MPICH'
p820
sS'gcc_already_loaded'
p821
g29
sS'PE_MPICH_GENCOMPS_GNU'
p822
S'51 49'
p823
sS'CRAY_RCA_INCLUDE_OPTS'
p824
S'-I/opt/cray/rca/2.2.16-6.0.5.0_15.34__g5e09e6d.ari/include -I/opt/cray/krca/2.2.2-6.0.5.1_13.38__g4614cf3.ari/include -I/opt/cray-hss-devel/8.0.0/include '
p825
sS'ZAP_LIBPATH'
p826
S'/opt/ovis/lib64/ovis-lib'
p827
sS'PE_PETSC_DEFAULT_GENCOMPILERS_INTEL_x86_64'
p828
S'16.0'
p829
sS'LDMSD_PLUGIN_LIBPATH'
p830
S'/opt/ovis/lib64/ovis-ldms'
p831
sS'PE_TPSL_DEFAULT_GENCOMPS_GNU_x86_skylake'
p832
S'61'
p833
sS'PE_TPSL_64_DEFAULT_GENCOMPS_CRAY_haswell'
p834
S'86'
p835
sS'INPUTRC'
p836
S'/etc/inputrc'
p837
sS'ACLOCAL_PATH'
p838
S'/global/common/sw/cray/cnl6/haswell/cfitsio/3.410/gcc/6.3.0/ws46fwk'
p839
sS'PE_TPSL_DEFAULT_GENCOMPILERS_INTEL_mic_knl'
p840
S'16.0'
p841
sS'TZ'
p842
S'US/Pacific'
p843
sS'PE_PARALLEL_NETCDF_DEFAULT_GENCOMPILERS_GNU'
p844
S'5.1 4.9'
p845
sS'PE_TPSL_64_DEFAULT_VOLATILE_PKGCONFIG_PATH'
p846
S'/opt/cray/pe/tpsl/17.11.1/@PRGENV@64/@PE_TPSL_64_DEFAULT_GENCOMPS@/@PE_TPSL_64_DEFAULT_TARGET@/lib/pkgconfig'
p847
sS'PE_LIBSCI_GENCOMPS_GNU_x86_64'
p848
S'71 61 51 49'
p849
sS'PE_TPSL_DEFAULT_GENCOMPILERS_INTEL_sandybridge'
p850
S'16.0'
p851
sS'PE_MPICH_DEFAULT_VOLATILE_PRGENV'
p852
S'CRAY GNU'
p853
sS'PE_TPSL_64_DEFAULT_VOLATILE_PRGENV'
p854
S'CRAY CRAY64 GNU GNU64 INTEL INTEL64'
p855
sS'PE_LIBSCI_DEFAULT_GENCOMPILERS_INTEL_x86_64'
p856
S'16.0'
p857
sS'PE_LIBSCI_OMP_REQUIRES_openmp'
p858
S'_mp'
p859
sS'PE_MPICH_FORTRAN_PKGCONFIG_LIBS'
p860
S'mpichf90'
p861
sS'PE_NETCDF_DEFAULT_GENCOMPILERS_GNU'
p862
S'5.1 4.9'
p863
sS'CRAY_SITE_LIST_DIR'
p864
S'/etc/opt/cray/pe/modules'
p865
sS'PE_TPSL_64_DEFAULT_GENCOMPILERS_GNU_mic_knl'
p866
S'5.1'
p867
sS'RCLOCAL_PRGENV'
p868
S'true'
p869
sS'PE_PETSC_DEFAULT_GENCOMPILERS_GNU_x86_64'
p870
S'5.3 4.9'
p871
sS'SCRATCH'
p872
S'/global/cscratch1/sd/seccolf'
p873
sS'PE_TPSL_64_DEFAULT_GENCOMPS_GNU_x86_64'
p874
S'51 49'
p875
sS'PE_LIBSCI_DEFAULT_PKGCONFIG_VARIABLES'
p876
S'PE_LIBSCI_DEFAULT_OMP_REQUIRES_@openmp@:PE_SCI_EXT_LIBPATH:PE_SCI_EXT_LIBNAME'
p877
sS'PE_PETSC_DEFAULT_GENCOMPS_INTEL_mic_knl'
p878
S'160'
p879
sS'CRAY_UDREG_POST_LINK_OPTS'
p880
S'-L/opt/cray/udreg/2.3.2-6.0.5.0_13.12__ga14955a.ari/lib64'
p881
ssb.